target datalayout = "e-m:e-p270:32:32-p271:32:32-p272:64:64-i64:64-i128:128-f80:128-n8:16:32:64-S128"
target triple = "x86_64-pc-linux-gnu"

%struct.parser_state_t = type { ptr, double, ptr }
%struct.token_t = type { i32, %union.token_data_t }
%union.token_data_t = type { double }

; Function Attrs: nounwind uwtable
define internal double @_read_number(ptr noundef %0) #0 {
  %2 = alloca ptr, align 8
  store ptr %0, ptr %2, align 8, !tbaa !14
  %3 = load ptr, ptr %2, align 8, !tbaa !14
  %4 = getelementptr inbounds nuw %struct.parser_state_t, ptr %3, i32 0, i32 0
  %5 = load ptr, ptr %4, align 8, !tbaa !16
  %6 = load ptr, ptr %2, align 8, !tbaa !14
  %7 = getelementptr inbounds nuw %struct.parser_state_t, ptr %6, i32 0, i32 0
  %8 = call reassoc nsz arcp contract afn double @g_ascii_strtod(ptr noundef %5, ptr noundef %7)
  ret double %8
}

; Function Attrs: nounwind uwtable
define internal ptr @_get_token(ptr noundef %0) #0 {
  %2 = alloca ptr, align 8
  %3 = alloca ptr, align 8
  %4 = alloca ptr, align 8
  %5 = alloca i32, align 4
  store ptr %0, ptr %3, align 8, !tbaa !14
  %6 = load ptr, ptr %3, align 8, !tbaa !14
  %7 = getelementptr inbounds nuw %struct.parser_state_t, ptr %6, i32 0, i32 0
  %8 = load ptr, ptr %7, align 8, !tbaa !16
  %9 = icmp ne ptr %8, null
  br i1 %9, label %11, label %10

10:                                               ; preds = %1
  store ptr null, ptr %2, align 8
  br label %179

11:                                               ; preds = %1
  call void @llvm.lifetime.start.p0(i64 8, ptr %4) #6
  %12 = call noalias ptr @malloc(i64 noundef 16) #7
  store ptr %12, ptr %4, align 8, !tbaa !24
  br label %13

13:                                               ; preds = %171, %11
  %14 = load ptr, ptr %3, align 8, !tbaa !14
  %15 = getelementptr inbounds nuw %struct.parser_state_t, ptr %14, i32 0, i32 0
  %16 = load ptr, ptr %15, align 8, !tbaa !16
  %17 = load i8, ptr %16, align 1, !tbaa !13
  %18 = icmp ne i8 %17, 0
  br i1 %18, label %19, label %176

19:                                               ; preds = %13
  %20 = load ptr, ptr %3, align 8, !tbaa !14
  %21 = getelementptr inbounds nuw %struct.parser_state_t, ptr %20, i32 0, i32 0
  %22 = load ptr, ptr %21, align 8, !tbaa !16
  %23 = load i8, ptr %22, align 1, !tbaa !13
  %24 = sext i8 %23 to i32
  switch i32 %24, label %169 [
    i32 32, label %25
    i32 9, label %25
    i32 43, label %26
    i32 45, label %52
    i32 42, label %78
    i32 47, label %88
    i32 37, label %98
    i32 94, label %108
    i32 58, label %118
    i32 40, label %128
    i32 41, label %138
    i32 120, label %148
    i32 88, label %148
    i32 48, label %161
    i32 49, label %161
    i32 50, label %161
    i32 51, label %161
    i32 52, label %161
    i32 53, label %161
    i32 54, label %161
    i32 55, label %161
    i32 56, label %161
    i32 57, label %161
    i32 46, label %161
    i32 44, label %161
  ]

25:                                               ; preds = %19, %19
  br label %171

26:                                               ; preds = %19
  %27 = load ptr, ptr %3, align 8, !tbaa !14
  %28 = getelementptr inbounds nuw %struct.parser_state_t, ptr %27, i32 0, i32 0
  %29 = load ptr, ptr %28, align 8, !tbaa !16
  %30 = getelementptr inbounds i8, ptr %29, i64 1
  %31 = load i8, ptr %30, align 1, !tbaa !13
  %32 = sext i8 %31 to i32
  %33 = icmp eq i32 %32, 43
  br i1 %33, label %34, label %41

34:                                               ; preds = %26
  %35 = load ptr, ptr %3, align 8, !tbaa !14
  %36 = getelementptr inbounds nuw %struct.parser_state_t, ptr %35, i32 0, i32 0
  %37 = load ptr, ptr %36, align 8, !tbaa !16
  %38 = getelementptr inbounds i8, ptr %37, i64 2
  store ptr %38, ptr %36, align 8, !tbaa !16
  %39 = load ptr, ptr %4, align 8, !tbaa !24
  %40 = getelementptr inbounds nuw %struct.token_t, ptr %39, i32 0, i32 1
  store i32 1, ptr %40, align 8, !tbaa !13
  br label %48

41:                                               ; preds = %26
  %42 = load ptr, ptr %3, align 8, !tbaa !14
  %43 = getelementptr inbounds nuw %struct.parser_state_t, ptr %42, i32 0, i32 0
  %44 = load ptr, ptr %43, align 8, !tbaa !16
  %45 = getelementptr inbounds nuw i8, ptr %44, i32 1
  store ptr %45, ptr %43, align 8, !tbaa !16
  %46 = load ptr, ptr %4, align 8, !tbaa !24
  %47 = getelementptr inbounds nuw %struct.token_t, ptr %46, i32 0, i32 1
  store i32 0, ptr %47, align 8, !tbaa !13
  br label %48

48:                                               ; preds = %41, %34
  %49 = load ptr, ptr %4, align 8, !tbaa !24
  %50 = getelementptr inbounds nuw %struct.token_t, ptr %49, i32 0, i32 0
  store i32 1, ptr %50, align 8, !tbaa !21
  %51 = load ptr, ptr %4, align 8, !tbaa !24
  store ptr %51, ptr %2, align 8
  store i32 1, ptr %5, align 4
  br label %178

52:                                               ; preds = %19
  %53 = load ptr, ptr %3, align 8, !tbaa !14
  %54 = getelementptr inbounds nuw %struct.parser_state_t, ptr %53, i32 0, i32 0
  %55 = load ptr, ptr %54, align 8, !tbaa !16
  %56 = getelementptr inbounds i8, ptr %55, i64 1
  %57 = load i8, ptr %56, align 1, !tbaa !13
  %58 = sext i8 %57 to i32
  %59 = icmp eq i32 %58, 45
  br i1 %59, label %60, label %67

60:                                               ; preds = %52
  %61 = load ptr, ptr %3, align 8, !tbaa !14
  %62 = getelementptr inbounds nuw %struct.parser_state_t, ptr %61, i32 0, i32 0
  %63 = load ptr, ptr %62, align 8, !tbaa !16
  %64 = getelementptr inbounds i8, ptr %63, i64 2
  store ptr %64, ptr %62, align 8, !tbaa !16
  %65 = load ptr, ptr %4, align 8, !tbaa !24
  %66 = getelementptr inbounds nuw %struct.token_t, ptr %65, i32 0, i32 1
  store i32 3, ptr %66, align 8, !tbaa !13
  br label %74

67:                                               ; preds = %52
  %68 = load ptr, ptr %3, align 8, !tbaa !14
  %69 = getelementptr inbounds nuw %struct.parser_state_t, ptr %68, i32 0, i32 0
  %70 = load ptr, ptr %69, align 8, !tbaa !16
  %71 = getelementptr inbounds nuw i8, ptr %70, i32 1
  store ptr %71, ptr %69, align 8, !tbaa !16
  %72 = load ptr, ptr %4, align 8, !tbaa !24
  %73 = getelementptr inbounds nuw %struct.token_t, ptr %72, i32 0, i32 1
  store i32 2, ptr %73, align 8, !tbaa !13
  br label %74

74:                                               ; preds = %67, %60
  %75 = load ptr, ptr %4, align 8, !tbaa !24
  %76 = getelementptr inbounds nuw %struct.token_t, ptr %75, i32 0, i32 0
  store i32 1, ptr %76, align 8, !tbaa !21
  %77 = load ptr, ptr %4, align 8, !tbaa !24
  store ptr %77, ptr %2, align 8
  store i32 1, ptr %5, align 4
  br label %178

78:                                               ; preds = %19
  %79 = load ptr, ptr %3, align 8, !tbaa !14
  %80 = getelementptr inbounds nuw %struct.parser_state_t, ptr %79, i32 0, i32 0
  %81 = load ptr, ptr %80, align 8, !tbaa !16
  %82 = getelementptr inbounds nuw i8, ptr %81, i32 1
  store ptr %82, ptr %80, align 8, !tbaa !16
  %83 = load ptr, ptr %4, align 8, !tbaa !24
  %84 = getelementptr inbounds nuw %struct.token_t, ptr %83, i32 0, i32 0
  store i32 1, ptr %84, align 8, !tbaa !21
  %85 = load ptr, ptr %4, align 8, !tbaa !24
  %86 = getelementptr inbounds nuw %struct.token_t, ptr %85, i32 0, i32 1
  store i32 4, ptr %86, align 8, !tbaa !13
  %87 = load ptr, ptr %4, align 8, !tbaa !24
  store ptr %87, ptr %2, align 8
  store i32 1, ptr %5, align 4
  br label %178

88:                                               ; preds = %19
  %89 = load ptr, ptr %3, align 8, !tbaa !14
  %90 = getelementptr inbounds nuw %struct.parser_state_t, ptr %89, i32 0, i32 0
  %91 = load ptr, ptr %90, align 8, !tbaa !16
  %92 = getelementptr inbounds nuw i8, ptr %91, i32 1
  store ptr %92, ptr %90, align 8, !tbaa !16
  %93 = load ptr, ptr %4, align 8, !tbaa !24
  %94 = getelementptr inbounds nuw %struct.token_t, ptr %93, i32 0, i32 0
  store i32 1, ptr %94, align 8, !tbaa !21
  %95 = load ptr, ptr %4, align 8, !tbaa !24
  %96 = getelementptr inbounds nuw %struct.token_t, ptr %95, i32 0, i32 1
  store i32 5, ptr %96, align 8, !tbaa !13
  %97 = load ptr, ptr %4, align 8, !tbaa !24
  store ptr %97, ptr %2, align 8
  store i32 1, ptr %5, align 4
  br label %178

98:                                               ; preds = %19
  %99 = load ptr, ptr %3, align 8, !tbaa !14
  %100 = getelementptr inbounds nuw %struct.parser_state_t, ptr %99, i32 0, i32 0
  %101 = load ptr, ptr %100, align 8, !tbaa !16
  %102 = getelementptr inbounds nuw i8, ptr %101, i32 1
  store ptr %102, ptr %100, align 8, !tbaa !16
  %103 = load ptr, ptr %4, align 8, !tbaa !24
  %104 = getelementptr inbounds nuw %struct.token_t, ptr %103, i32 0, i32 0
  store i32 1, ptr %104, align 8, !tbaa !21
  %105 = load ptr, ptr %4, align 8, !tbaa !24
  %106 = getelementptr inbounds nuw %struct.token_t, ptr %105, i32 0, i32 1
  store i32 6, ptr %106, align 8, !tbaa !13
  %107 = load ptr, ptr %4, align 8, !tbaa !24
  store ptr %107, ptr %2, align 8
  store i32 1, ptr %5, align 4
  br label %178

108:                                              ; preds = %19
  %109 = load ptr, ptr %3, align 8, !tbaa !14
  %110 = getelementptr inbounds nuw %struct.parser_state_t, ptr %109, i32 0, i32 0
  %111 = load ptr, ptr %110, align 8, !tbaa !16
  %112 = getelementptr inbounds nuw i8, ptr %111, i32 1
  store ptr %112, ptr %110, align 8, !tbaa !16
  %113 = load ptr, ptr %4, align 8, !tbaa !24
  %114 = getelementptr inbounds nuw %struct.token_t, ptr %113, i32 0, i32 0
  store i32 1, ptr %114, align 8, !tbaa !21
  %115 = load ptr, ptr %4, align 8, !tbaa !24
  %116 = getelementptr inbounds nuw %struct.token_t, ptr %115, i32 0, i32 1
  store i32 7, ptr %116, align 8, !tbaa !13
  %117 = load ptr, ptr %4, align 8, !tbaa !24
  store ptr %117, ptr %2, align 8
  store i32 1, ptr %5, align 4
  br label %178

118:                                              ; preds = %19
  %119 = load ptr, ptr %3, align 8, !tbaa !14
  %120 = getelementptr inbounds nuw %struct.parser_state_t, ptr %119, i32 0, i32 0
  %121 = load ptr, ptr %120, align 8, !tbaa !16
  %122 = getelementptr inbounds nuw i8, ptr %121, i32 1
  store ptr %122, ptr %120, align 8, !tbaa !16
  %123 = load ptr, ptr %4, align 8, !tbaa !24
  %124 = getelementptr inbounds nuw %struct.token_t, ptr %123, i32 0, i32 0
  store i32 1, ptr %124, align 8, !tbaa !21
  %125 = load ptr, ptr %4, align 8, !tbaa !24
  %126 = getelementptr inbounds nuw %struct.token_t, ptr %125, i32 0, i32 1
  store i32 8, ptr %126, align 8, !tbaa !13
  %127 = load ptr, ptr %4, align 8, !tbaa !24
  store ptr %127, ptr %2, align 8
  store i32 1, ptr %5, align 4
  br label %178

128:                                              ; preds = %19
  %129 = load ptr, ptr %3, align 8, !tbaa !14
  %130 = getelementptr inbounds nuw %struct.parser_state_t, ptr %129, i32 0, i32 0
  %131 = load ptr, ptr %130, align 8, !tbaa !16
  %132 = getelementptr inbounds nuw i8, ptr %131, i32 1
  store ptr %132, ptr %130, align 8, !tbaa !16
  %133 = load ptr, ptr %4, align 8, !tbaa !24
  %134 = getelementptr inbounds nuw %struct.token_t, ptr %133, i32 0, i32 0
  store i32 1, ptr %134, align 8, !tbaa !21
  %135 = load ptr, ptr %4, align 8, !tbaa !24
  %136 = getelementptr inbounds nuw %struct.token_t, ptr %135, i32 0, i32 1
  store i32 9, ptr %136, align 8, !tbaa !13
  %137 = load ptr, ptr %4, align 8, !tbaa !24
  store ptr %137, ptr %2, align 8
  store i32 1, ptr %5, align 4
  br label %178

138:                                              ; preds = %19
  %139 = load ptr, ptr %3, align 8, !tbaa !14
  %140 = getelementptr inbounds nuw %struct.parser_state_t, ptr %139, i32 0, i32 0
  %141 = load ptr, ptr %140, align 8, !tbaa !16
  %142 = getelementptr inbounds nuw i8, ptr %141, i32 1
  store ptr %142, ptr %140, align 8, !tbaa !16
  %143 = load ptr, ptr %4, align 8, !tbaa !24
  %144 = getelementptr inbounds nuw %struct.token_t, ptr %143, i32 0, i32 0
  store i32 1, ptr %144, align 8, !tbaa !21
  %145 = load ptr, ptr %4, align 8, !tbaa !24
  %146 = getelementptr inbounds nuw %struct.token_t, ptr %145, i32 0, i32 1
  store i32 10, ptr %146, align 8, !tbaa !13
  %147 = load ptr, ptr %4, align 8, !tbaa !24
  store ptr %147, ptr %2, align 8
  store i32 1, ptr %5, align 4
  br label %178

148:                                              ; preds = %19, %19
  %149 = load ptr, ptr %3, align 8, !tbaa !14
  %150 = getelementptr inbounds nuw %struct.parser_state_t, ptr %149, i32 0, i32 0
  %151 = load ptr, ptr %150, align 8, !tbaa !16
  %152 = getelementptr inbounds nuw i8, ptr %151, i32 1
  store ptr %152, ptr %150, align 8, !tbaa !16
  %153 = load ptr, ptr %4, align 8, !tbaa !24
  %154 = getelementptr inbounds nuw %struct.token_t, ptr %153, i32 0, i32 0
  store i32 0, ptr %154, align 8, !tbaa !21
  %155 = load ptr, ptr %3, align 8, !tbaa !14
  %156 = getelementptr inbounds nuw %struct.parser_state_t, ptr %155, i32 0, i32 1
  %157 = load double, ptr %156, align 8, !tbaa !19
  %158 = load ptr, ptr %4, align 8, !tbaa !24
  %159 = getelementptr inbounds nuw %struct.token_t, ptr %158, i32 0, i32 1
  store double %157, ptr %159, align 8, !tbaa !13
  %160 = load ptr, ptr %4, align 8, !tbaa !24
  store ptr %160, ptr %2, align 8
  store i32 1, ptr %5, align 4
  br label %178

161:                                              ; preds = %19, %19, %19, %19, %19, %19, %19, %19, %19, %19, %19, %19
  %162 = load ptr, ptr %3, align 8, !tbaa !14
  %163 = call reassoc nsz arcp contract afn double @_read_number(ptr noundef %162)
  %164 = load ptr, ptr %4, align 8, !tbaa !24
  %165 = getelementptr inbounds nuw %struct.token_t, ptr %164, i32 0, i32 1
  store double %163, ptr %165, align 8, !tbaa !13
  %166 = load ptr, ptr %4, align 8, !tbaa !24
  %167 = getelementptr inbounds nuw %struct.token_t, ptr %166, i32 0, i32 0
  store i32 0, ptr %167, align 8, !tbaa !21
  %168 = load ptr, ptr %4, align 8, !tbaa !24
  store ptr %168, ptr %2, align 8
  store i32 1, ptr %5, align 4
  br label %178

169:                                              ; preds = %19
  br label %170

170:                                              ; preds = %169
  br label %171

171:                                              ; preds = %170, %25
  %172 = load ptr, ptr %3, align 8, !tbaa !14
  %173 = getelementptr inbounds nuw %struct.parser_state_t, ptr %172, i32 0, i32 0
  %174 = load ptr, ptr %173, align 8, !tbaa !16
  %175 = getelementptr inbounds nuw i8, ptr %174, i32 1
  store ptr %175, ptr %173, align 8, !tbaa !16
  br label %13

176:                                              ; preds = %13
  %177 = load ptr, ptr %4, align 8, !tbaa !24
  call void @free(ptr noundef %177) #6
  store ptr null, ptr %2, align 8
  store i32 1, ptr %5, align 4
  br label %178

178:                                              ; preds = %176, %161, %148, %138, %128, %118, %108, %98, %88, %78, %74, %48
  call void @llvm.lifetime.end.p0(i64 8, ptr %4) #6
  br label %179

179:                                              ; preds = %178, %10
  %180 = load ptr, ptr %2, align 8
  ret ptr %180
}