; Function Attrs: nounwind uwtable
define internal fastcc noalias noundef ptr @_get_token(ptr noundef %0) unnamed_addr #0 {
  %2 = load ptr, ptr %0, align 8, !tbaa !9
  %.not = icmp eq ptr %2, null
  br i1 %.not, label %52, label %3

3:                                                ; preds = %1
  %4 = tail call noalias dereferenceable_or_null(16) ptr @malloc(i64 noundef 16) #6
  br label %5

5:                                                ; preds = %49, %3
  %6 = phi ptr [ %50, %49 ], [ %2, %3 ]
  %7 = load i8, ptr %6, align 1, !tbaa !6
  switch i8 %7, label %49 [
    i8 0, label %51
    i8 44, label %46
    i8 46, label %46
    i8 43, label %8
    i8 45, label %14
    i8 42, label %20
    i8 47, label %23
    i8 37, label %26
    i8 94, label %29
    i8 58, label %32
    i8 40, label %35
    i8 41, label %38
    i8 120, label %41
    i8 88, label %41
    i8 48, label %46
    i8 49, label %46
    i8 50, label %46
    i8 51, label %46
    i8 52, label %46
    i8 53, label %46
    i8 54, label %46
    i8 55, label %46
    i8 56, label %46
    i8 57, label %46
  ]

8:                                                ; preds = %5
  %9 = getelementptr inbounds nuw i8, ptr %6, i64 1
  %10 = load i8, ptr %9, align 1, !tbaa !6
  %11 = icmp eq i8 %10, 43
  %12 = getelementptr inbounds nuw i8, ptr %6, i64 2
  %spec.select = select i1 %11, ptr %12, ptr %9
  %spec.select95 = zext i1 %11 to i32
  store ptr %spec.select, ptr %0, align 8, !tbaa !9
  %13 = getelementptr inbounds nuw i8, ptr %4, i64 8
  store i32 %spec.select95, ptr %13, align 8, !tbaa !6
  store i32 1, ptr %4, align 8, !tbaa !17
  br label %52

14:                                               ; preds = %5
  %15 = getelementptr inbounds nuw i8, ptr %6, i64 1
  %16 = load i8, ptr %15, align 1, !tbaa !6
  %17 = icmp eq i8 %16, 45
  %18 = getelementptr inbounds nuw i8, ptr %6, i64 2
  %spec.select96 = select i1 %17, ptr %18, ptr %15
  %spec.select97 = select i1 %17, i32 3, i32 2
  store ptr %spec.select96, ptr %0, align 8, !tbaa !9
  %19 = getelementptr inbounds nuw i8, ptr %4, i64 8
  store i32 %spec.select97, ptr %19, align 8, !tbaa !6
  store i32 1, ptr %4, align 8, !tbaa !17
  br label %52

20:                                               ; preds = %5
  %21 = getelementptr inbounds nuw i8, ptr %6, i64 1
  store ptr %21, ptr %0, align 8, !tbaa !9
  store i32 1, ptr %4, align 8, !tbaa !17
  %22 = getelementptr inbounds nuw i8, ptr %4, i64 8
  store i32 4, ptr %22, align 8, !tbaa !6
  br label %52

23:                                               ; preds = %5
  %24 = getelementptr inbounds nuw i8, ptr %6, i64 1
  store ptr %24, ptr %0, align 8, !tbaa !9
  store i32 1, ptr %4, align 8, !tbaa !17
  %25 = getelementptr inbounds nuw i8, ptr %4, i64 8
  store i32 5, ptr %25, align 8, !tbaa !6
  br label %52

26:                                               ; preds = %5
  %27 = getelementptr inbounds nuw i8, ptr %6, i64 1
  store ptr %27, ptr %0, align 8, !tbaa !9
  store i32 1, ptr %4, align 8, !tbaa !17
  %28 = getelementptr inbounds nuw i8, ptr %4, i64 8
  store i32 6, ptr %28, align 8, !tbaa !6
  br label %52

29:                                               ; preds = %5
  %30 = getelementptr inbounds nuw i8, ptr %6, i64 1
  store ptr %30, ptr %0, align 8, !tbaa !9
  store i32 1, ptr %4, align 8, !tbaa !17
  %31 = getelementptr inbounds nuw i8, ptr %4, i64 8
  store i32 7, ptr %31, align 8, !tbaa !6
  br label %52

32:                                               ; preds = %5
  %33 = getelementptr inbounds nuw i8, ptr %6, i64 1
  store ptr %33, ptr %0, align 8, !tbaa !9
  store i32 1, ptr %4, align 8, !tbaa !17
  %34 = getelementptr inbounds nuw i8, ptr %4, i64 8
  store i32 8, ptr %34, align 8, !tbaa !6
  br label %52

35:                                               ; preds = %5
  %36 = getelementptr inbounds nuw i8, ptr %6, i64 1
  store ptr %36, ptr %0, align 8, !tbaa !9
  store i32 1, ptr %4, align 8, !tbaa !17
  %37 = getelementptr inbounds nuw i8, ptr %4, i64 8
  store i32 9, ptr %37, align 8, !tbaa !6
  br label %52

38:                                               ; preds = %5
  %39 = getelementptr inbounds nuw i8, ptr %6, i64 1
  store ptr %39, ptr %0, align 8, !tbaa !9
  store i32 1, ptr %4, align 8, !tbaa !17
  %40 = getelementptr inbounds nuw i8, ptr %4, i64 8
  store i32 10, ptr %40, align 8, !tbaa !6
  br label %52

41:                                               ; preds = %5, %5
  %42 = getelementptr inbounds nuw i8, ptr %6, i64 1
  store ptr %42, ptr %0, align 8, !tbaa !9
  store i32 0, ptr %4, align 8, !tbaa !17
  %43 = getelementptr inbounds nuw i8, ptr %0, i64 8
  %44 = load double, ptr %43, align 8, !tbaa !15
  %45 = getelementptr inbounds nuw i8, ptr %4, i64 8
  store double %44, ptr %45, align 8, !tbaa !6
  br label %52

46:                                               ; preds = %5, %5, %5, %5, %5, %5, %5, %5, %5, %5, %5, %5
  %47 = tail call reassoc nsz arcp contract afn double @g_ascii_strtod(ptr noundef nonnull %6, ptr noundef nonnull %0) #5
  %48 = getelementptr inbounds nuw i8, ptr %4, i64 8
  store double %47, ptr %48, align 8, !tbaa !6
  store i32 0, ptr %4, align 8, !tbaa !17
  br label %52

49:                                               ; preds = %5
  %50 = getelementptr inbounds nuw i8, ptr %6, i64 1
  store ptr %50, ptr %0, align 8, !tbaa !9
  br label %5

51:                                               ; preds = %5
  tail call void @free(ptr noundef %4) #5
  br label %52

52:                                               ; preds = %8, %14, %20, %23, %26, %29, %32, %35, %38, %41, %46, %51, %1
  %.0 = phi ptr [ null, %1 ], [ %4, %41 ], [ %4, %38 ], [ %4, %35 ], [ %4, %32 ], [ %4, %29 ], [ %4, %26 ], [ %4, %23 ], [ %4, %20 ], [ %4, %14 ], [ %4, %8 ], [ %4, %46 ], [ null, %51 ]
  ret ptr %.0
}